; Function Attrs: mustprogress nounwind uwtable
define hidden void @_ZN13ThreadService15add_thread_dumpEP16ThreadDumpResult(ptr noundef %0) local_unnamed_addr #0 align 2 {
  %2 = load ptr, ptr @Management_lock, align 8
  %.not.i.i = icmp eq ptr %2, null
  br i1 %.not.i.i, label %_ZN11MutexLockerC2EP5MutexNS0_18SafepointCheckFlagE.exit, label %3

3:                                                ; preds = %1
  tail call void @_ZN5Mutex4lockEv(ptr noundef nonnull align 8 dereferenceable(104) %2) #12
  br label %_ZN11MutexLockerC2EP5MutexNS0_18SafepointCheckFlagE.exit

_ZN11MutexLockerC2EP5MutexNS0_18SafepointCheckFlagE.exit: ; preds = %1, %3
  %4 = load ptr, ptr @_ZN13ThreadService16_threaddump_listE, align 8
  %5 = icmp eq ptr %4, null
  br i1 %5, label %8, label %6

6:                                                ; preds = %_ZN11MutexLockerC2EP5MutexNS0_18SafepointCheckFlagE.exit
  %7 = getelementptr inbounds i8, ptr %0, i64 24
  store ptr %4, ptr %7, align 8
  br label %8

8:                                                ; preds = %_ZN11MutexLockerC2EP5MutexNS0_18SafepointCheckFlagE.exit, %6
  store ptr %0, ptr @_ZN13ThreadService16_threaddump_listE, align 8
  br i1 %.not.i.i, label %_ZN11MutexLockerD2Ev.exit, label %9

9:                                                ; preds = %8
  tail call void @_ZN5Mutex6unlockEv(ptr noundef nonnull align 8 dereferenceable(104) %2) #12
  br label %_ZN11MutexLockerD2Ev.exit

_ZN11MutexLockerD2Ev.exit:                        ; preds = %8, %9
  ret void
}